target datalayout = "e-m:e-p270:32:32-p271:32:32-p272:64:64-i64:64-i128:128-f80:128-n8:16:32:64-S128"
target triple = "x86_64-pc-linux-gnu"

%class.ProcSmapsParser = type { ptr, i64, ptr }

@_ZN6OSInfo13_vm_page_sizeE = external global i64, align 8

; Function Attrs: mustprogress nounwind uwtable
define linkonce_odr hidden noundef i64 @_ZN6OSInfo12vm_page_sizeEv() #1 comdat align 2 {
  %1 = load i64, ptr @_ZN6OSInfo13_vm_page_sizeE, align 8
  ret i64 %1
}

; Function Attrs: mustprogress nounwind uwtable
define linkonce_odr hidden noundef i64 @_ZN2os12vm_page_sizeEv() #1 comdat align 2 {
  %1 = call noundef i64 @_ZN6OSInfo12vm_page_sizeEv()
  ret i64 %1
}

; Function Attrs: mustprogress nounwind uwtable
define internal noundef i64 @_ZL20max_mapping_line_lenv() #1 {
  %1 = call noundef i64 @_ZN2os12vm_page_sizeEv()
  %2 = add i64 100, %1
  ret i64 %2
}

; Function Attrs: mustprogress nounwind uwtable
define hidden void @_ZN15ProcSmapsParserC2EP8_IO_FILE(ptr noundef nonnull align 8 dereferenceable(24) %0, ptr noundef %1) unnamed_addr #1 align 2 {
  %3 = alloca ptr, align 8
  %4 = alloca ptr, align 8
  store ptr %0, ptr %3, align 8
  store ptr %1, ptr %4, align 8
  %5 = load ptr, ptr %3, align 8
  %6 = getelementptr inbounds %class.ProcSmapsParser, ptr %5, i32 0, i32 0
  %7 = load ptr, ptr %4, align 8
  store ptr %7, ptr %6, align 8
  %8 = getelementptr inbounds %class.ProcSmapsParser, ptr %5, i32 0, i32 1
  %9 = call noundef i64 @_ZL20max_mapping_line_lenv()
  store i64 %9, ptr %8, align 8
  %10 = getelementptr inbounds %class.ProcSmapsParser, ptr %5, i32 0, i32 2
  store ptr null, ptr %10, align 8
  %11 = call noundef i64 @_ZL20max_mapping_line_lenv()
  %12 = mul i64 %11, 1
  %13 = call noundef ptr @_Z12AllocateHeapm8MEMFLAGSN17AllocFailStrategy13AllocFailEnumE(i64 noundef %12, i8 noundef zeroext 9, i32 noundef 0)
  %14 = getelementptr inbounds %class.ProcSmapsParser, ptr %5, i32 0, i32 2
  store ptr %13, ptr %14, align 8
  %15 = getelementptr inbounds %class.ProcSmapsParser, ptr %5, i32 0, i32 2
  %16 = load ptr, ptr %15, align 8
  %17 = getelementptr inbounds i8, ptr %16, i64 0
  store i8 0, ptr %17, align 1
  ret void
}