; Function Attrs: mustprogress nounwind uwtable
define hidden void @_ZN15ProcSmapsParserC2EP8_IO_FILE(ptr nocapture noundef nonnull writeonly align 8 dereferenceable(24) %0, ptr noundef %1) unnamed_addr #0 align 2 {
  store ptr %1, ptr %0, align 8
  %3 = getelementptr inbounds i8, ptr %0, i64 8
  %4 = load i64, ptr @_ZN6OSInfo13_vm_page_sizeE, align 8
  %5 = add i64 %4, 100
  store i64 %5, ptr %3, align 8
  %6 = getelementptr inbounds i8, ptr %0, i64 16
  store ptr null, ptr %6, align 8
  %7 = tail call noundef ptr @_Z12AllocateHeapm8MEMFLAGSN17AllocFailStrategy13AllocFailEnumE(i64 noundef %5, i8 noundef zeroext 9, i32 noundef 0) #7
  store ptr %7, ptr %6, align 8
  store i8 0, ptr %7, align 1
  ret void
}